target datalayout = "e-m:e-p270:32:32-p271:32:32-p272:64:64-i64:64-i128:128-f80:128-n8:16:32:64-S128"
target triple = "x86_64-pc-linux-gnu"

%struct.SDL_EventWatchList = type { ptr, %struct.SDL_EventWatcher, ptr, i32, i8, i8 }
%struct.SDL_EventWatcher = type { ptr, ptr, i8 }

; Function Attrs: nounwind uwtable
define hidden zeroext i1 @SDL_DispatchEventWatchList(ptr noundef %0, ptr noundef %1) #0 {
  %3 = alloca i1, align 1
  %4 = alloca ptr, align 8
  %5 = alloca ptr, align 8
  %6 = alloca ptr, align 8
  %7 = alloca i32, align 4
  %8 = alloca i32, align 4
  %9 = alloca i32, align 4
  store ptr %0, ptr %4, align 8
  store ptr %1, ptr %5, align 8
  call void @llvm.lifetime.start.p0(i64 8, ptr %6) #6
  %10 = load ptr, ptr %4, align 8
  %11 = getelementptr inbounds nuw %struct.SDL_EventWatchList, ptr %10, i32 0, i32 1
  store ptr %11, ptr %6, align 8
  %12 = load ptr, ptr %6, align 8
  %13 = getelementptr inbounds nuw %struct.SDL_EventWatcher, ptr %12, i32 0, i32 0
  %14 = load ptr, ptr %13, align 8
  %15 = icmp ne ptr %14, null
  br i1 %15, label %22, label %16

16:                                               ; preds = %2
  %17 = load ptr, ptr %4, align 8
  %18 = getelementptr inbounds nuw %struct.SDL_EventWatchList, ptr %17, i32 0, i32 3
  %19 = load i32, ptr %18, align 8
  %20 = icmp eq i32 %19, 0
  br i1 %20, label %21, label %22

21:                                               ; preds = %16
  store i1 true, ptr %3, align 1
  store i32 1, ptr %7, align 4
  br label %154

22:                                               ; preds = %16, %2
  %23 = load ptr, ptr %4, align 8
  %24 = getelementptr inbounds nuw %struct.SDL_EventWatchList, ptr %23, i32 0, i32 0
  %25 = load ptr, ptr %24, align 8
  call void @SDL_LockMutex_REAL(ptr noundef %25)
  call void @llvm.lifetime.start.p0(i64 4, ptr %8) #6
  call void @llvm.lifetime.start.p0(i64 4, ptr %9) #6
  %26 = load ptr, ptr %4, align 8
  %27 = getelementptr inbounds nuw %struct.SDL_EventWatchList, ptr %26, i32 0, i32 3
  %28 = load i32, ptr %27, align 8
  store i32 %28, ptr %9, align 4
  %29 = load ptr, ptr %6, align 8
  %30 = getelementptr inbounds nuw %struct.SDL_EventWatcher, ptr %29, i32 0, i32 0
  %31 = load ptr, ptr %30, align 8
  %32 = icmp ne ptr %31, null
  br i1 %32, label %33, label %46

33:                                               ; preds = %22
  %34 = load ptr, ptr %6, align 8
  %35 = getelementptr inbounds nuw %struct.SDL_EventWatcher, ptr %34, i32 0, i32 0
  %36 = load ptr, ptr %35, align 8
  %37 = load ptr, ptr %6, align 8
  %38 = getelementptr inbounds nuw %struct.SDL_EventWatcher, ptr %37, i32 0, i32 1
  %39 = load ptr, ptr %38, align 8
  %40 = load ptr, ptr %5, align 8
  %41 = call zeroext i1 %36(ptr noundef %39, ptr noundef %40)
  br i1 %41, label %46, label %42

42:                                               ; preds = %33
  %43 = load ptr, ptr %4, align 8
  %44 = getelementptr inbounds nuw %struct.SDL_EventWatchList, ptr %43, i32 0, i32 0
  %45 = load ptr, ptr %44, align 8
  call void @SDL_UnlockMutex_REAL(ptr noundef %45)
  store i1 false, ptr %3, align 1
  store i32 1, ptr %7, align 4
  br label %148

46:                                               ; preds = %33, %22
  %47 = load ptr, ptr %4, align 8
  %48 = getelementptr inbounds nuw %struct.SDL_EventWatchList, ptr %47, i32 0, i32 4
  store i8 1, ptr %48, align 4
  store i32 0, ptr %8, align 4
  br label %49

49:                                               ; preds = %83, %46
  %50 = load i32, ptr %8, align 4
  %51 = load i32, ptr %9, align 4
  %52 = icmp slt i32 %50, %51
  br i1 %52, label %53, label %86

53:                                               ; preds = %49
  %54 = load ptr, ptr %4, align 8
  %55 = getelementptr inbounds nuw %struct.SDL_EventWatchList, ptr %54, i32 0, i32 2
  %56 = load ptr, ptr %55, align 8
  %57 = load i32, ptr %8, align 4
  %58 = sext i32 %57 to i64
  %59 = getelementptr inbounds %struct.SDL_EventWatcher, ptr %56, i64 %58
  %60 = getelementptr inbounds nuw %struct.SDL_EventWatcher, ptr %59, i32 0, i32 2
  %61 = load i8, ptr %60, align 8, !range !3, !noundef !4
  %62 = trunc i8 %61 to i1
  br i1 %62, label %82, label %63

63:                                               ; preds = %53
  %64 = load ptr, ptr %4, align 8
  %65 = getelementptr inbounds nuw %struct.SDL_EventWatchList, ptr %64, i32 0, i32 2
  %66 = load ptr, ptr %65, align 8
  %67 = load i32, ptr %8, align 4
  %68 = sext i32 %67 to i64
  %69 = getelementptr inbounds %struct.SDL_EventWatcher, ptr %66, i64 %68
  %70 = getelementptr inbounds nuw %struct.SDL_EventWatcher, ptr %69, i32 0, i32 0
  %71 = load ptr, ptr %70, align 8
  %72 = load ptr, ptr %4, align 8
  %73 = getelementptr inbounds nuw %struct.SDL_EventWatchList, ptr %72, i32 0, i32 2
  %74 = load ptr, ptr %73, align 8
  %75 = load i32, ptr %8, align 4
  %76 = sext i32 %75 to i64
  %77 = getelementptr inbounds %struct.SDL_EventWatcher, ptr %74, i64 %76
  %78 = getelementptr inbounds nuw %struct.SDL_EventWatcher, ptr %77, i32 0, i32 1
  %79 = load ptr, ptr %78, align 8
  %80 = load ptr, ptr %5, align 8
  %81 = call zeroext i1 %71(ptr noundef %79, ptr noundef %80)
  br label %82

82:                                               ; preds = %63, %53
  br label %83

83:                                               ; preds = %82
  %84 = load i32, ptr %8, align 4
  %85 = add nsw i32 %84, 1
  store i32 %85, ptr %8, align 4
  br label %49, !llvm.loop !5

86:                                               ; preds = %49
  %87 = load ptr, ptr %4, align 8
  %88 = getelementptr inbounds nuw %struct.SDL_EventWatchList, ptr %87, i32 0, i32 4
  store i8 0, ptr %88, align 4
  %89 = load ptr, ptr %4, align 8
  %90 = getelementptr inbounds nuw %struct.SDL_EventWatchList, ptr %89, i32 0, i32 5
  %91 = load i8, ptr %90, align 1, !range !3, !noundef !4
  %92 = trunc i8 %91 to i1
  br i1 %92, label %93, label %147

93:                                               ; preds = %86
  %94 = load ptr, ptr %4, align 8
  %95 = getelementptr inbounds nuw %struct.SDL_EventWatchList, ptr %94, i32 0, i32 3
  %96 = load i32, ptr %95, align 8
  store i32 %96, ptr %8, align 4
  br label %97

97:                                               ; preds = %143, %93
  %98 = load i32, ptr %8, align 4
  %99 = add nsw i32 %98, -1
  store i32 %99, ptr %8, align 4
  %100 = icmp ne i32 %98, 0
  br i1 %100, label %101, label %144

101:                                              ; preds = %97
  %102 = load ptr, ptr %4, align 8
  %103 = getelementptr inbounds nuw %struct.SDL_EventWatchList, ptr %102, i32 0, i32 2
  %104 = load ptr, ptr %103, align 8
  %105 = load i32, ptr %8, align 4
  %106 = sext i32 %105 to i64
  %107 = getelementptr inbounds %struct.SDL_EventWatcher, ptr %104, i64 %106
  %108 = getelementptr inbounds nuw %struct.SDL_EventWatcher, ptr %107, i32 0, i32 2
  %109 = load i8, ptr %108, align 8, !range !3, !noundef !4
  %110 = trunc i8 %109 to i1
  br i1 %110, label %111, label %143

111:                                              ; preds = %101
  %112 = load ptr, ptr %4, align 8
  %113 = getelementptr inbounds nuw %struct.SDL_EventWatchList, ptr %112, i32 0, i32 3
  %114 = load i32, ptr %113, align 8
  %115 = add nsw i32 %114, -1
  store i32 %115, ptr %113, align 8
  %116 = load i32, ptr %8, align 4
  %117 = load ptr, ptr %4, align 8
  %118 = getelementptr inbounds nuw %struct.SDL_EventWatchList, ptr %117, i32 0, i32 3
  %119 = load i32, ptr %118, align 8
  %120 = icmp slt i32 %116, %119
  br i1 %120, label %121, label %142

121:                                              ; preds = %111
  %122 = load ptr, ptr %4, align 8
  %123 = getelementptr inbounds nuw %struct.SDL_EventWatchList, ptr %122, i32 0, i32 2
  %124 = load ptr, ptr %123, align 8
  %125 = load i32, ptr %8, align 4
  %126 = sext i32 %125 to i64
  %127 = getelementptr inbounds %struct.SDL_EventWatcher, ptr %124, i64 %126
  %128 = load ptr, ptr %4, align 8
  %129 = getelementptr inbounds nuw %struct.SDL_EventWatchList, ptr %128, i32 0, i32 2
  %130 = load ptr, ptr %129, align 8
  %131 = load i32, ptr %8, align 4
  %132 = add nsw i32 %131, 1
  %133 = sext i32 %132 to i64
  %134 = getelementptr inbounds %struct.SDL_EventWatcher, ptr %130, i64 %133
  %135 = load ptr, ptr %4, align 8
  %136 = getelementptr inbounds nuw %struct.SDL_EventWatchList, ptr %135, i32 0, i32 3
  %137 = load i32, ptr %136, align 8
  %138 = load i32, ptr %8, align 4
  %139 = sub nsw i32 %137, %138
  %140 = sext i32 %139 to i64
  %141 = mul i64 %140, 24
  call void @llvm.memmove.p0.p0.i64(ptr align 8 %127, ptr align 8 %134, i64 %141, i1 false)
  br label %142

142:                                              ; preds = %121, %111
  br label %143

143:                                              ; preds = %142, %101
  br label %97, !llvm.loop !7

144:                                              ; preds = %97
  %145 = load ptr, ptr %4, align 8
  %146 = getelementptr inbounds nuw %struct.SDL_EventWatchList, ptr %145, i32 0, i32 5
  store i8 0, ptr %146, align 1
  br label %147

147:                                              ; preds = %144, %86
  store i32 0, ptr %7, align 4
  br label %148

148:                                              ; preds = %147, %42
  call void @llvm.lifetime.end.p0(i64 4, ptr %9) #6
  call void @llvm.lifetime.end.p0(i64 4, ptr %8) #6
  %149 = load i32, ptr %7, align 4
  switch i32 %149, label %154 [
    i32 0, label %150
  ]

150:                                              ; preds = %148
  %151 = load ptr, ptr %4, align 8
  %152 = getelementptr inbounds nuw %struct.SDL_EventWatchList, ptr %151, i32 0, i32 0
  %153 = load ptr, ptr %152, align 8
  call void @SDL_UnlockMutex_REAL(ptr noundef %153)
  store i1 true, ptr %3, align 1
  store i32 1, ptr %7, align 4
  br label %154

154:                                              ; preds = %150, %148, %21
  call void @llvm.lifetime.end.p0(i64 8, ptr %6) #6
  %155 = load i1, ptr %3, align 1
  ret i1 %155
}