; Function Attrs: nounwind uwtable
define hidden noundef zeroext i1 @SDL_DispatchEventWatchList(ptr noundef captures(none) %0, ptr noundef %1) local_unnamed_addr #0 {
  %3 = getelementptr inbounds nuw i8, ptr %0, i64 8
  %4 = load ptr, ptr %3, align 8
  %.not = icmp eq ptr %4, null
  br i1 %.not, label %5, label %9

5:                                                ; preds = %2
  %6 = getelementptr inbounds nuw i8, ptr %0, i64 40
  %7 = load i32, ptr %6, align 8
  %8 = icmp eq i32 %7, 0
  br i1 %8, label %60, label %9

9:                                                ; preds = %5, %2
  %10 = load ptr, ptr %0, align 8
  tail call void @SDL_LockMutex_REAL(ptr noundef %10) #5
  %11 = getelementptr inbounds nuw i8, ptr %0, i64 40
  %12 = load i32, ptr %11, align 8
  %13 = load ptr, ptr %3, align 8
  %.not45 = icmp eq ptr %13, null
  br i1 %.not45, label %18, label %14

14:                                               ; preds = %9
  %15 = getelementptr inbounds nuw i8, ptr %0, i64 16
  %16 = load ptr, ptr %15, align 8
  %17 = tail call zeroext i1 %13(ptr noundef %16, ptr noundef %1) #5
  br i1 %17, label %18, label %.sink.split

18:                                               ; preds = %14, %9
  %19 = getelementptr inbounds nuw i8, ptr %0, i64 44
  store i8 1, ptr %19, align 4
  %20 = icmp sgt i32 %12, 0
  br i1 %20, label %.lr.ph, label %._crit_edge

.lr.ph:                                           ; preds = %18
  %21 = getelementptr inbounds nuw i8, ptr %0, i64 32
  %wide.trip.count = zext nneg i32 %12 to i64
  br label %22

22:                                               ; preds = %.lr.ph, %33
  %indvars.iv = phi i64 [ 0, %.lr.ph ], [ %indvars.iv.next, %33 ]
  %23 = load ptr, ptr %21, align 8
  %24 = getelementptr inbounds nuw %struct.SDL_EventWatcher, ptr %23, i64 %indvars.iv
  %25 = getelementptr inbounds nuw i8, ptr %24, i64 16
  %26 = load i8, ptr %25, align 8, !range !3, !noundef !4
  %27 = trunc nuw i8 %26 to i1
  br i1 %27, label %33, label %28

28:                                               ; preds = %22
  %29 = load ptr, ptr %24, align 8
  %30 = getelementptr inbounds nuw i8, ptr %24, i64 8
  %31 = load ptr, ptr %30, align 8
  %32 = tail call zeroext i1 %29(ptr noundef %31, ptr noundef %1) #5
  br label %33

33:                                               ; preds = %22, %28
  %indvars.iv.next = add nuw nsw i64 %indvars.iv, 1
  %exitcond.not = icmp eq i64 %indvars.iv.next, %wide.trip.count
  br i1 %exitcond.not, label %._crit_edge, label %22, !llvm.loop !5

._crit_edge:                                      ; preds = %33, %18
  store i8 0, ptr %19, align 4
  %34 = getelementptr inbounds nuw i8, ptr %0, i64 45
  %35 = load i8, ptr %34, align 1, !range !3, !noundef !4
  %36 = trunc nuw i8 %35 to i1
  br i1 %36, label %37, label %.sink.split

37:                                               ; preds = %._crit_edge
  %38 = load i32, ptr %11, align 8
  %.not4648 = icmp eq i32 %38, 0
  br i1 %.not4648, label %._crit_edge52, label %.lr.ph51

.lr.ph51:                                         ; preds = %37
  %39 = getelementptr inbounds nuw i8, ptr %0, i64 32
  %40 = sext i32 %38 to i64
  br label %41

41:                                               ; preds = %.lr.ph51, %58
  %indvars.iv54 = phi i64 [ %40, %.lr.ph51 ], [ %indvars.iv.next55, %58 ]
  %indvars.iv.next55 = add nsw i64 %indvars.iv54, -1
  %42 = load ptr, ptr %39, align 8
  %43 = getelementptr inbounds %struct.SDL_EventWatcher, ptr %42, i64 %indvars.iv.next55, i32 2
  %44 = load i8, ptr %43, align 8, !range !3, !noundef !4
  %45 = trunc nuw i8 %44 to i1
  br i1 %45, label %46, label %58

46:                                               ; preds = %41
  %47 = load i32, ptr %11, align 8
  %48 = add nsw i32 %47, -1
  store i32 %48, ptr %11, align 8
  %49 = sext i32 %47 to i64
  %50 = icmp slt i64 %indvars.iv54, %49
  br i1 %50, label %51, label %58

51:                                               ; preds = %46
  %52 = getelementptr inbounds %struct.SDL_EventWatcher, ptr %42, i64 %indvars.iv.next55
  %53 = getelementptr inbounds %struct.SDL_EventWatcher, ptr %42, i64 %indvars.iv54
  %54 = trunc nsw i64 %indvars.iv54 to i32
  %55 = sub i32 %47, %54
  %56 = sext i32 %55 to i64
  %57 = mul nsw i64 %56, 24
  tail call void @llvm.memmove.p0.p0.i64(ptr align 8 %52, ptr nonnull align 8 %53, i64 %57, i1 false)
  br label %58

58:                                               ; preds = %46, %51, %41
  %.not46 = icmp eq i64 %indvars.iv.next55, 0
  br i1 %.not46, label %._crit_edge52, label %41, !llvm.loop !7

._crit_edge52:                                    ; preds = %58, %37
  store i8 0, ptr %34, align 1
  br label %.sink.split

.sink.split:                                      ; preds = %._crit_edge, %._crit_edge52, %14
  %.0.ph = phi i1 [ false, %14 ], [ true, %._crit_edge52 ], [ true, %._crit_edge ]
  %59 = load ptr, ptr %0, align 8
  tail call void @SDL_UnlockMutex_REAL(ptr noundef %59) #5
  br label %60

60:                                               ; preds = %.sink.split, %5
  %.0 = phi i1 [ true, %5 ], [ %.0.ph, %.sink.split ]
  ret i1 %.0
}